target datalayout = "e-m:e-p270:32:32-p271:32:32-p272:64:64-i64:64-i128:128-f80:128-n8:16:32:64-S128"
target triple = "x86_64-pc-linux-gnu"

; Function Attrs: nounwind uwtable
define i32 @stmm_strhash(ptr noundef %0, i32 noundef %1) #0 {
  %3 = alloca ptr, align 8
  %4 = alloca i32, align 4
  %5 = alloca i32, align 4
  %6 = alloca i32, align 4
  store ptr %0, ptr %3, align 8
  store i32 %1, ptr %4, align 4
  store i32 0, ptr %5, align 4
  br label %7

7:                                                ; preds = %13, %2
  %8 = load ptr, ptr %3, align 8
  %9 = getelementptr inbounds i8, ptr %8, i32 1
  store ptr %9, ptr %3, align 8
  %10 = load i8, ptr %8, align 1
  %11 = sext i8 %10 to i32
  store i32 %11, ptr %6, align 4
  %12 = icmp ne i32 %11, 0
  br i1 %12, label %13, label %18

13:                                               ; preds = %7
  %14 = load i32, ptr %5, align 4
  %15 = mul nsw i32 %14, 997
  %16 = load i32, ptr %6, align 4
  %17 = add nsw i32 %15, %16
  store i32 %17, ptr %5, align 4
  br label %7, !llvm.loop !21

18:                                               ; preds = %7
  %19 = load i32, ptr %5, align 4
  %20 = icmp slt i32 %19, 0
  br i1 %20, label %21, label %24

21:                                               ; preds = %18
  %22 = load i32, ptr %5, align 4
  %23 = sub nsw i32 0, %22
  br label %26

24:                                               ; preds = %18
  %25 = load i32, ptr %5, align 4
  br label %26

26:                                               ; preds = %24, %21
  %27 = phi i32 [ %23, %21 ], [ %25, %24 ]
  %28 = load i32, ptr %4, align 4
  %29 = srem i32 %27, %28
  ret i32 %29
}