; Function Attrs: nofree norecurse nosync nounwind memory(argmem: read) uwtable
define range(i32 0, -2147483648) i32 @stmm_strhash(ptr noundef readonly captures(none) %0, i32 noundef %1) local_unnamed_addr #6 {
  %3 = load i8, ptr %0, align 1
  %.not8 = icmp eq i8 %3, 0
  br i1 %.not8, label %._crit_edge, label %.lr.ph

.lr.ph:                                           ; preds = %2, %.lr.ph
  %4 = phi i8 [ %9, %.lr.ph ], [ %3, %2 ]
  %.010 = phi ptr [ %6, %.lr.ph ], [ %0, %2 ]
  %.069 = phi i32 [ %8, %.lr.ph ], [ 0, %2 ]
  %5 = sext i8 %4 to i32
  %6 = getelementptr inbounds nuw i8, ptr %.010, i64 1
  %7 = mul nsw i32 %.069, 997
  %8 = add nsw i32 %7, %5
  %9 = load i8, ptr %6, align 1
  %.not = icmp eq i8 %9, 0
  br i1 %.not, label %._crit_edge, label %.lr.ph, !llvm.loop !20

._crit_edge:                                      ; preds = %.lr.ph, %2
  %.06.lcssa = phi i32 [ 0, %2 ], [ %8, %.lr.ph ]
  %10 = tail call i32 @llvm.abs.i32(i32 %.06.lcssa, i1 true)
  %11 = srem i32 %10, %1
  ret i32 %11
}